; Function Attrs: null_pointer_is_valid sspstrong uwtable
define internal range(i32 0, 2) i32 @dcm_eo_packet(ptr noundef readonly captures(none) %0, ptr noundef readonly captures(none) %1, ptr readnone captures(none) %2, ptr noundef readonly captures(address_is_null) %3, i32 %4) #0 {
  %.not = icmp eq ptr %3, null
  br i1 %.not, label %33, label %6

6:                                                ; preds = %5
  %7 = tail call noalias dereferenceable_or_null(48) ptr @g_malloc(i64 noundef 48) #10
  %8 = getelementptr inbounds nuw i8, ptr %1, i64 20
  %9 = load i32, ptr %8, align 4
  store i32 %9, ptr %7, align 8
  %10 = getelementptr inbounds nuw i8, ptr %3, i64 8
  %11 = load ptr, ptr %10, align 8
  %12 = tail call noalias ptr @g_strdup(ptr noundef %11)
  %13 = getelementptr inbounds nuw i8, ptr %7, i64 8
  store ptr %12, ptr %13, align 8
  %14 = getelementptr inbounds nuw i8, ptr %3, i64 24
  %15 = load ptr, ptr %14, align 8
  %16 = tail call noalias ptr @g_strdup(ptr noundef %15)
  %17 = getelementptr inbounds nuw i8, ptr %7, i64 16
  store ptr %16, ptr %17, align 8
  %18 = getelementptr inbounds nuw i8, ptr %3, i64 16
  %19 = load ptr, ptr %18, align 8
  %20 = tail call noalias ptr @g_path_get_basename(ptr noundef %19)
  %21 = getelementptr inbounds nuw i8, ptr %7, i64 24
  store ptr %20, ptr %21, align 8
  %22 = getelementptr inbounds nuw i8, ptr %3, i64 32
  %23 = load i32, ptr %22, align 8
  %24 = zext i32 %23 to i64
  %25 = getelementptr inbounds nuw i8, ptr %7, i64 32
  store i64 %24, ptr %25, align 8
  %26 = getelementptr inbounds nuw i8, ptr %3, i64 40
  %27 = load ptr, ptr %26, align 8
  %28 = tail call ptr @g_memdup2(ptr noundef %27, i64 noundef %24) #11
  %29 = getelementptr inbounds nuw i8, ptr %7, i64 40
  store ptr %28, ptr %29, align 8
  %30 = load ptr, ptr %0, align 8
  %31 = getelementptr inbounds nuw i8, ptr %0, i64 16
  %32 = load ptr, ptr %31, align 8
  tail call void %30(ptr noundef %32, ptr noundef %7)
  br label %33

33:                                               ; preds = %5, %6
  %.0 = phi i32 [ 1, %6 ], [ 0, %5 ]
  ret i32 %.0
}